	.file	"max.cpp"
	.text
.Ltext0:
	.section	.text._ZNKSt9type_info4nameEv,"axG",@progbits,_ZNKSt9type_info4nameEv,comdat
	.align 2
	.weak	_ZNKSt9type_info4nameEv
	.type	_ZNKSt9type_info4nameEv, @function
_ZNKSt9type_info4nameEv:
.LFB18:
	.file 1 "/usr/include/c++/7/typeinfo"
	.loc 1 99 0
	.cfi_startproc
	pushq	%rbp
	.cfi_def_cfa_offset 16
	.cfi_offset 6, -16
	movq	%rsp, %rbp
	.cfi_def_cfa_register 6
	movq	%rdi, -8(%rbp)
	.loc 1 100 0
	movq	-8(%rbp), %rax
	movq	8(%rax), %rax
	movzbl	(%rax), %eax
	cmpb	$42, %al
	jne	.L2
	.loc 1 100 0 is_stmt 0 discriminator 1
	movq	-8(%rbp), %rax
	movq	8(%rax), %rax
	addq	$1, %rax
	jmp	.L4
.L2:
	.loc 1 100 0 discriminator 2
	movq	-8(%rbp), %rax
	movq	8(%rax), %rax
.L4:
	.loc 1 100 0 discriminator 5
	popq	%rbp
	.cfi_def_cfa 7, 8
	ret
	.cfi_endproc
.LFE18:
	.size	_ZNKSt9type_info4nameEv, .-_ZNKSt9type_info4nameEv
	.section	.rodata
	.type	_ZStL19piecewise_construct, @object
	.size	_ZStL19piecewise_construct, 1
_ZStL19piecewise_construct:
	.zero	1
	.local	_ZStL8__ioinit
	.comm	_ZStL8__ioinit,1,1
	.text
	.globl	main
	.type	main, @function
main:
.LFB1494:
	.file 2 "max.cpp"
	.loc 2 11 0 is_stmt 1
	.cfi_startproc
	pushq	%rbp
	.cfi_def_cfa_offset 16
	.cfi_offset 6, -16
	movq	%rsp, %rbp
	.cfi_def_cfa_register 6
	subq	$32, %rsp
	.loc 2 12 0
	movss	.LC0(%rip), %xmm1
	movss	.LC1(%rip), %xmm0
	call	_Z3MaxIfET_S0_S0_
	.loc 2 13 0
	movsd	.LC2(%rip), %xmm0
	movq	.LC3(%rip), %rax
	movapd	%xmm0, %xmm1
	movq	%rax, -24(%rbp)
	movsd	-24(%rbp), %xmm0
	call	_Z3MaxIdET_S0_S0_
	.loc 2 14 0
	leaq	_Z3MaxIiET_S0_S0_(%rip), %rax
	movq	%rax, -8(%rbp)
	.loc 2 15 0
	movl	$0, %eax
	.loc 2 17 0
	leave
	.cfi_def_cfa 7, 8
	ret
	.cfi_endproc
.LFE1494:
	.size	main, .-main
	.section	.text._Z3MaxIfET_S0_S0_,"axG",@progbits,_Z3MaxIfET_S0_S0_,comdat
	.weak	_Z3MaxIfET_S0_S0_
	.type	_Z3MaxIfET_S0_S0_, @function
_Z3MaxIfET_S0_S0_:
.LFB1731:
	.loc 2 4 0
	.cfi_startproc
	pushq	%rbp
	.cfi_def_cfa_offset 16
	.cfi_offset 6, -16
	movq	%rsp, %rbp
	.cfi_def_cfa_register 6
	subq	$16, %rsp
	movss	%xmm0, -4(%rbp)
	movss	%xmm1, -8(%rbp)
	.loc 2 6 0
	leaq	_ZTIf(%rip), %rdi
	call	_ZNKSt9type_info4nameEv
	movq	%rax, %rsi
	leaq	_ZSt4cout(%rip), %rdi
	call	_ZStlsISt11char_traitsIcEERSt13basic_ostreamIcT_ES5_PKc@PLT
	movq	%rax, %rdx
	movq	_ZSt4endlIcSt11char_traitsIcEERSt13basic_ostreamIT_T0_ES6_@GOTPCREL(%rip), %rax
	movq	%rax, %rsi
	movq	%rdx, %rdi
	call	_ZNSolsEPFRSoS_E@PLT
	.loc 2 7 0
	movss	-4(%rbp), %xmm0
	ucomiss	-8(%rbp), %xmm0
	jbe	.L13
	.loc 2 7 0 is_stmt 0 discriminator 1
	movss	-4(%rbp), %xmm0
	jmp	.L11
.L13:
	.loc 2 7 0 discriminator 2
	movss	-8(%rbp), %xmm0
.L11:
	.loc 2 8 0 is_stmt 1 discriminator 5
	leave
	.cfi_def_cfa 7, 8
	ret
	.cfi_endproc
.LFE1731:
	.size	_Z3MaxIfET_S0_S0_, .-_Z3MaxIfET_S0_S0_
	.section	.text._Z3MaxIdET_S0_S0_,"axG",@progbits,_Z3MaxIdET_S0_S0_,comdat
	.weak	_Z3MaxIdET_S0_S0_
	.type	_Z3MaxIdET_S0_S0_, @function
_Z3MaxIdET_S0_S0_:
.LFB1732:
	.loc 2 4 0
	.cfi_startproc
	pushq	%rbp
	.cfi_def_cfa_offset 16
	.cfi_offset 6, -16
	movq	%rsp, %rbp
	.cfi_def_cfa_register 6
	subq	$16, %rsp
	movsd	%xmm0, -8(%rbp)
	movsd	%xmm1, -16(%rbp)
	.loc 2 6 0
	leaq	_ZTId(%rip), %rdi
	call	_ZNKSt9type_info4nameEv
	movq	%rax, %rsi
	leaq	_ZSt4cout(%rip), %rdi
	call	_ZStlsISt11char_traitsIcEERSt13basic_ostreamIcT_ES5_PKc@PLT
	movq	%rax, %rdx
	movq	_ZSt4endlIcSt11char_traitsIcEERSt13basic_ostreamIT_T0_ES6_@GOTPCREL(%rip), %rax
	movq	%rax, %rsi
	movq	%rdx, %rdi
	call	_ZNSolsEPFRSoS_E@PLT
	.loc 2 7 0
	movsd	-8(%rbp), %xmm0
	ucomisd	-16(%rbp), %xmm0
	jbe	.L20
	.loc 2 7 0 is_stmt 0 discriminator 1
	movsd	-8(%rbp), %xmm0
	jmp	.L18
.L20:
	.loc 2 7 0 discriminator 2
	movsd	-16(%rbp), %xmm0
.L18:
	.loc 2 8 0 is_stmt 1 discriminator 5
	leave
	.cfi_def_cfa 7, 8
	ret
	.cfi_endproc
.LFE1732:
	.size	_Z3MaxIdET_S0_S0_, .-_Z3MaxIdET_S0_S0_
	.section	.text._Z3MaxIiET_S0_S0_,"axG",@progbits,_Z3MaxIiET_S0_S0_,comdat
	.weak	_Z3MaxIiET_S0_S0_
	.type	_Z3MaxIiET_S0_S0_, @function
_Z3MaxIiET_S0_S0_:
.LFB1733:
	.loc 2 4 0
	.cfi_startproc
	pushq	%rbp
	.cfi_def_cfa_offset 16
	.cfi_offset 6, -16
	movq	%rsp, %rbp
	.cfi_def_cfa_register 6
	subq	$16, %rsp
	movl	%edi, -4(%rbp)
	movl	%esi, -8(%rbp)
	.loc 2 6 0
	leaq	_ZTIi(%rip), %rdi
	call	_ZNKSt9type_info4nameEv
	movq	%rax, %rsi
	leaq	_ZSt4cout(%rip), %rdi
	call	_ZStlsISt11char_traitsIcEERSt13basic_ostreamIcT_ES5_PKc@PLT
	movq	%rax, %rdx
	movq	_ZSt4endlIcSt11char_traitsIcEERSt13basic_ostreamIT_T0_ES6_@GOTPCREL(%rip), %rax
	movq	%rax, %rsi
	movq	%rdx, %rdi
	call	_ZNSolsEPFRSoS_E@PLT
	.loc 2 7 0
	movl	-4(%rbp), %eax
	cmpl	-8(%rbp), %eax
	jle	.L22
	.loc 2 7 0 is_stmt 0 discriminator 1
	movl	-4(%rbp), %eax
	jmp	.L24
.L22:
	.loc 2 7 0 discriminator 2
	movl	-8(%rbp), %eax
.L24:
	.loc 2 8 0 is_stmt 1 discriminator 5
	leave
	.cfi_def_cfa 7, 8
	ret
	.cfi_endproc
.LFE1733:
	.size	_Z3MaxIiET_S0_S0_, .-_Z3MaxIiET_S0_S0_
	.text
	.type	_Z41__static_initialization_and_destruction_0ii, @function
_Z41__static_initialization_and_destruction_0ii:
.LFB1986:
	.loc 2 17 0
	.cfi_startproc
	pushq	%rbp
	.cfi_def_cfa_offset 16
	.cfi_offset 6, -16
	movq	%rsp, %rbp
	.cfi_def_cfa_register 6
	subq	$16, %rsp
	movl	%edi, -4(%rbp)
	movl	%esi, -8(%rbp)
	.loc 2 17 0
	cmpl	$1, -4(%rbp)
	jne	.L27
	.loc 2 17 0 is_stmt 0 discriminator 1
	cmpl	$65535, -8(%rbp)
	jne	.L27
	.file 3 "/usr/include/c++/7/iostream"
	.loc 3 74 0 is_stmt 1
	leaq	_ZStL8__ioinit(%rip), %rdi
	call	_ZNSt8ios_base4InitC1Ev@PLT
	leaq	__dso_handle(%rip), %rdx
	leaq	_ZStL8__ioinit(%rip), %rsi
	movq	_ZNSt8ios_base4InitD1Ev@GOTPCREL(%rip), %rax
	movq	%rax, %rdi
	call	__cxa_atexit@PLT
.L27:
	.loc 2 17 0
	nop
	leave
	.cfi_def_cfa 7, 8
	ret
	.cfi_endproc
.LFE1986:
	.size	_Z41__static_initialization_and_destruction_0ii, .-_Z41__static_initialization_and_destruction_0ii
	.type	_GLOBAL__sub_I_main, @function
_GLOBAL__sub_I_main:
.LFB1987:
	.loc 2 17 0
	.cfi_startproc
	pushq	%rbp
	.cfi_def_cfa_offset 16
	.cfi_offset 6, -16
	movq	%rsp, %rbp
	.cfi_def_cfa_register 6
	.loc 2 17 0
	movl	$65535, %esi
	movl	$1, %edi
	call	_Z41__static_initialization_and_destruction_0ii
	popq	%rbp
	.cfi_def_cfa 7, 8
	ret
	.cfi_endproc
.LFE1987:
	.size	_GLOBAL__sub_I_main, .-_GLOBAL__sub_I_main
	.section	.init_array,"aw"
	.align 8
	.quad	_GLOBAL__sub_I_main
	.section	.rodata
	.align 4
.LC0:
	.long	1085276160
	.align 4
.LC1:
	.long	1077936128
	.align 8
.LC2:
	.long	3435973837
	.long	1075367116
	.align 8
.LC3:
	.long	0
	.long	1074266112
	.text
.Letext0:
	.file 4 "/usr/include/c++/7/cwchar"
	.file 5 "/usr/include/c++/7/new"
	.file 6 "/usr/include/c++/7/bits/exception_ptr.h"
	.file 7 "/usr/include/c++/7/type_traits"
	.file 8 "/usr/include/x86_64-linux-gnu/c++/7/bits/c++config.h"
	.file 9 "/usr/include/c++/7/bits/cpp_type_traits.h"
	.file 10 "/usr/include/c++/7/bits/stl_pair.h"
	.file 11 "/usr/include/c++/7/debug/debug.h"
	.file 12 "/usr/include/c++/7/bits/char_traits.h"
	.file 13 "/usr/include/c++/7/cstdint"
	.file 14 "/usr/include/c++/7/clocale"
	.file 15 "/usr/include/c++/7/cstdlib"
	.file 16 "/usr/include/c++/7/cstdio"
	.file 17 "/usr/include/c++/7/bits/basic_string.h"
	.file 18 "/usr/include/c++/7/system_error"
	.file 19 "/usr/include/c++/7/bits/ios_base.h"
	.file 20 "/usr/include/c++/7/cwctype"
	.file 21 "/usr/include/c++/7/iosfwd"
	.file 22 "/usr/include/c++/7/bits/predefined_ops.h"
	.file 23 "/usr/include/c++/7/ext/new_allocator.h"
	.file 24 "/usr/include/c++/7/ext/numeric_traits.h"
	.file 25 "/usr/lib/gcc/x86_64-linux-gnu/7/include/stddef.h"
	.file 26 "<built-in>"
	.file 27 "/usr/include/x86_64-linux-gnu/bits/types/wint_t.h"
	.file 28 "/usr/include/x86_64-linux-gnu/bits/types/__mbstate_t.h"
	.file 29 "/usr/include/x86_64-linux-gnu/bits/types/mbstate_t.h"
	.file 30 "/usr/include/x86_64-linux-gnu/bits/types/__FILE.h"
	.file 31 "/usr/include/x86_64-linux-gnu/bits/libio.h"
	.file 32 "/usr/include/x86_64-linux-gnu/bits/types/FILE.h"
	.file 33 "/usr/include/wchar.h"
	.file 34 "/usr/include/x86_64-linux-gnu/bits/types/struct_tm.h"
	.file 35 "/usr/include/x86_64-linux-gnu/bits/types.h"
	.file 36 "/usr/include/x86_64-linux-gnu/bits/stdint-intn.h"
	.file 37 "/usr/include/x86_64-linux-gnu/bits/stdint-uintn.h"
	.file 38 "/usr/include/stdint.h"
	.file 39 "/usr/include/locale.h"
	.file 40 "/usr/include/time.h"
	.file 41 "/usr/include/x86_64-linux-gnu/c++/7/bits/atomic_word.h"
	.file 42 "/usr/include/stdlib.h"
	.file 43 "/usr/include/x86_64-linux-gnu/bits/_G_config.h"
	.file 44 "/usr/include/stdio.h"
	.file 45 "/usr/include/x86_64-linux-gnu/bits/sys_errlist.h"
	.file 46 "/usr/include/errno.h"
	.file 47 "/usr/include/x86_64-linux-gnu/bits/wctype-wchar.h"
	.file 48 "/usr/include/wctype.h"
	.section	.note.GNU-stack,"",@progbits
